target datalayout = "e-m:e-p270:32:32-p271:32:32-p272:64:64-i64:64-i128:128-f80:128-n8:16:32:64-S128"
target triple = "x86_64-pc-linux-gnu"

%"struct.std::_Rb_tree_header" = type { %"struct.std::_Rb_tree_node_base", i64 }
%"struct.std::_Rb_tree_node_base" = type { i32, ptr, ptr, ptr }
%"class.vcg::Box3" = type { %"class.vcg::Point3", %"class.vcg::Point3" }
%"class.vcg::Point3" = type { [3 x float] }
%"class.vcg::Matrix44" = type { %"struct.std::array.122" }
%"struct.std::array.122" = type { [16 x float] }
%class.QList.149 = type { %union.anon.151 }
%union.anon.151 = type { %struct.QListData }
%struct.QListData = type { ptr }
%class.QList = type { %union.anon.148 }
%union.anon.148 = type { %struct.QListData }
%class.DecorateRasterProjPlugin = type { %class.QObject, %class.DecoratePlugin.base, %"class.glw::Context", i8, %"class.vcg::Box3", %class.QMap, ptr, ptr, %"class.vcg::Matrix44", %"class.vcg::Matrix44", %"class.vcg::Matrix44", %"class.glw::detail::ObjectSharedPointer", %"class.glw::detail::ObjectSharedPointer", %"class.glw::detail::ObjectSharedPointer.171", %class.MeshLabPlugin }
%class.QObject = type { ptr, %class.QScopedPointer }
%class.QScopedPointer = type { ptr }
%class.DecoratePlugin.base = type { %class.MeshLabPluginLogger, %class.QList, %class.QList.149 }
%class.MeshLabPluginLogger = type { ptr, ptr }
%"class.glw::Context" = type { ptr, i8, i32, i32, i32, %"class.std::map.152", %"class.std::map.160" }
%"class.std::map.152" = type { %"class.std::_Rb_tree.153" }
%"class.std::_Rb_tree.153" = type { %"struct.std::_Rb_tree<glw::Object *, std::pair<glw::Object *const, glw::detail::RefCountedObject<glw::Object, glw::detail::ObjectDeleter, glw::detail::NoType> *>, std::_Select1st<std::pair<glw::Object *const, glw::detail::RefCountedObject<glw::Object, glw::detail::ObjectDeleter, glw::detail::NoType> *>>, std::less<glw::Object *>>::_Rb_tree_impl" }
%"struct.std::_Rb_tree<glw::Object *, std::pair<glw::Object *const, glw::detail::RefCountedObject<glw::Object, glw::detail::ObjectDeleter, glw::detail::NoType> *>, std::_Select1st<std::pair<glw::Object *const, glw::detail::RefCountedObject<glw::Object, glw::detail::ObjectDeleter, glw::detail::NoType> *>>, std::less<glw::Object *>>::_Rb_tree_impl" = type { %"struct.std::_Rb_tree_key_compare.157", %"struct.std::_Rb_tree_header" }
%"struct.std::_Rb_tree_key_compare.157" = type { %"struct.std::less.158" }
%"struct.std::less.158" = type { i8 }
%"class.std::map.160" = type { %"class.std::_Rb_tree.161" }
%"class.std::_Rb_tree.161" = type { %"struct.std::_Rb_tree<std::pair<unsigned int, int>, std::pair<const std::pair<unsigned int, int>, glw::detail::RefCountedObject<glw::BoundObject, glw::detail::DefaultDeleter<glw::BoundObject>, glw::detail::NoType> *>, std::_Select1st<std::pair<const std::pair<unsigned int, int>, glw::detail::RefCountedObject<glw::BoundObject, glw::detail::DefaultDeleter<glw::BoundObject>, glw::detail::NoType> *>>, std::less<std::pair<unsigned int, int>>>::_Rb_tree_impl" }
%"struct.std::_Rb_tree<std::pair<unsigned int, int>, std::pair<const std::pair<unsigned int, int>, glw::detail::RefCountedObject<glw::BoundObject, glw::detail::DefaultDeleter<glw::BoundObject>, glw::detail::NoType> *>, std::_Select1st<std::pair<const std::pair<unsigned int, int>, glw::detail::RefCountedObject<glw::BoundObject, glw::detail::DefaultDeleter<glw::BoundObject>, glw::detail::NoType> *>>, std::less<std::pair<unsigned int, int>>>::_Rb_tree_impl" = type { %"struct.std::_Rb_tree_key_compare.165", %"struct.std::_Rb_tree_header" }
%"struct.std::_Rb_tree_key_compare.165" = type { %"struct.std::less.166" }
%"struct.std::less.166" = type { i8 }
%class.QMap = type { ptr }
%"class.glw::detail::ObjectSharedPointer" = type { %"class.glw::detail::ObjectSharedPointer.168" }
%"class.glw::detail::ObjectSharedPointer.168" = type { %"class.glw::detail::ObjectSharedPointer.169" }
%"class.glw::detail::ObjectSharedPointer.169" = type { %"class.glw::detail::ObjectSharedPointer.170" }
%"class.glw::detail::ObjectSharedPointer.170" = type { ptr }
%"class.glw::detail::ObjectSharedPointer.171" = type { %"class.glw::detail::ObjectSharedPointer.170" }
%class.MeshLabPlugin = type { ptr, i8, %class.QFileInfo }
%class.QFileInfo = type { %class.QSharedDataPointer }
%class.QSharedDataPointer = type { ptr }
%"class.glw::detail::RefCountedObject" = type <{ ptr, i32, %"struct.glw::detail::DefaultDeleter", [3 x i8] }>
%"struct.glw::detail::DefaultDeleter" = type { i8 }

; Function Attrs: mustprogress nounwind uwtable
define linkonce_odr void @_ZN3glw6detail14DefaultDeleterINS_10SafeObjectEEclEPS2_(ptr noundef nonnull align 1 dereferenceable(1) %0, ptr noundef %1) #4 comdat align 2 {
  %3 = alloca ptr, align 8
  %4 = alloca ptr, align 8
  store ptr %0, ptr %3, align 8
  store ptr %1, ptr %4, align 8
  %5 = load ptr, ptr %4, align 8
  %6 = icmp eq ptr %5, null
  br i1 %6, label %11, label %7

7:                                                ; preds = %2
  %8 = load ptr, ptr %5, align 8
  %9 = getelementptr inbounds ptr, ptr %8, i64 1
  %10 = load ptr, ptr %9, align 8
  call void %10(ptr noundef nonnull align 8 dereferenceable(16) %5) #3
  br label %11

11:                                               ; preds = %7, %2
  ret void
}

; Function Attrs: noreturn nounwind uwtable
define linkonce_odr hidden void @__clang_call_terminate(ptr noundef %0) #9 comdat {
  %2 = call ptr @__cxa_begin_catch(ptr %0) #3
  call void @_ZSt9terminatev() #18
  unreachable
}

; Function Attrs: mustprogress uwtable
define linkonce_odr void @_ZN3glw6detail16RefCountedObjectINS_10SafeObjectENS0_14DefaultDeleterIS2_EENS0_6NoTypeEE13destroyObjectEv(ptr noundef nonnull align 8 dereferenceable(13) %0) #5 comdat align 2 {
  %2 = alloca ptr, align 8
  store ptr %0, ptr %2, align 8
  %3 = load ptr, ptr %2, align 8
  %4 = getelementptr inbounds %"class.glw::detail::RefCountedObject", ptr %3, i32 0, i32 0
  %5 = load ptr, ptr %4, align 8
  %6 = icmp eq ptr %5, null
  br i1 %6, label %7, label %8

7:                                                ; preds = %1
  br label %13

8:                                                ; preds = %1
  %9 = getelementptr inbounds %"class.glw::detail::RefCountedObject", ptr %3, i32 0, i32 2
  %10 = getelementptr inbounds %"class.glw::detail::RefCountedObject", ptr %3, i32 0, i32 0
  %11 = load ptr, ptr %10, align 8
  call void @_ZN3glw6detail14DefaultDeleterINS_10SafeObjectEEclEPS2_(ptr noundef nonnull align 1 dereferenceable(1) %9, ptr noundef %11)
  %12 = getelementptr inbounds %"class.glw::detail::RefCountedObject", ptr %3, i32 0, i32 0
  store ptr null, ptr %12, align 8
  br label %13

13:                                               ; preds = %8, %7
  ret void
}

; Function Attrs: mustprogress nounwind uwtable
define linkonce_odr void @_ZN3glw6detail16RefCountedObjectINS_10SafeObjectENS0_14DefaultDeleterIS2_EENS0_6NoTypeEED2Ev(ptr noundef nonnull align 8 dereferenceable(13) %0) unnamed_addr #4 comdat align 2 personality ptr @__gxx_personality_v0 {
  %2 = alloca ptr, align 8
  store ptr %0, ptr %2, align 8
  %3 = load ptr, ptr %2, align 8
  invoke void @_ZN3glw6detail16RefCountedObjectINS_10SafeObjectENS0_14DefaultDeleterIS2_EENS0_6NoTypeEE13destroyObjectEv(ptr noundef nonnull align 8 dereferenceable(13) %3)
          to label %4 unwind label %5

4:                                                ; preds = %1
  ret void

5:                                                ; preds = %1
  %6 = landingpad { ptr, i32 }
          catch ptr null
  %7 = extractvalue { ptr, i32 } %6, 0
  call void @__clang_call_terminate(ptr %7) #18
  unreachable
}

; Function Attrs: mustprogress nounwind uwtable
define linkonce_odr void @_ZN3glw6detail16RefCountedObjectINS_10SafeObjectENS0_14DefaultDeleterIS2_EENS0_6NoTypeEE5unrefEv(ptr noundef nonnull align 8 dereferenceable(13) %0) #4 comdat align 2 {
  %2 = alloca ptr, align 8
  store ptr %0, ptr %2, align 8
  %3 = load ptr, ptr %2, align 8
  %4 = getelementptr inbounds %"class.glw::detail::RefCountedObject", ptr %3, i32 0, i32 1
  %5 = load i32, ptr %4, align 8
  %6 = add nsw i32 %5, -1
  store i32 %6, ptr %4, align 8
  %7 = getelementptr inbounds %"class.glw::detail::RefCountedObject", ptr %3, i32 0, i32 1
  %8 = load i32, ptr %7, align 8
  %9 = icmp eq i32 %8, 0
  br i1 %9, label %10, label %14

10:                                               ; preds = %1
  %11 = icmp eq ptr %3, null
  br i1 %11, label %13, label %12

12:                                               ; preds = %10
  call void @_ZN3glw6detail16RefCountedObjectINS_10SafeObjectENS0_14DefaultDeleterIS2_EENS0_6NoTypeEED2Ev(ptr noundef nonnull align 8 dereferenceable(13) %3) #3
  call void @_ZdlPv(ptr noundef %3) #21
  br label %13

13:                                               ; preds = %12, %10
  br label %14

14:                                               ; preds = %13, %1
  ret void
}

; Function Attrs: mustprogress uwtable
define linkonce_odr void @_ZN3glw6detail19ObjectSharedPointerINS_10SafeObjectENS0_14DefaultDeleterIS2_EENS0_6NoTypeEE6detachEv(ptr noundef nonnull align 8 dereferenceable(8) %0) #5 comdat align 2 {
  %2 = alloca ptr, align 8
  store ptr %0, ptr %2, align 8
  %3 = load ptr, ptr %2, align 8
  %4 = getelementptr inbounds %"class.glw::detail::ObjectSharedPointer.170", ptr %3, i32 0, i32 0
  %5 = load ptr, ptr %4, align 8
  %6 = icmp eq ptr %5, null
  br i1 %6, label %7, label %8

7:                                                ; preds = %1
  br label %12

8:                                                ; preds = %1
  %9 = getelementptr inbounds %"class.glw::detail::ObjectSharedPointer.170", ptr %3, i32 0, i32 0
  %10 = load ptr, ptr %9, align 8
  call void @_ZN3glw6detail16RefCountedObjectINS_10SafeObjectENS0_14DefaultDeleterIS2_EENS0_6NoTypeEE5unrefEv(ptr noundef nonnull align 8 dereferenceable(13) %10)
  %11 = getelementptr inbounds %"class.glw::detail::ObjectSharedPointer.170", ptr %3, i32 0, i32 0
  store ptr null, ptr %11, align 8
  br label %12

12:                                               ; preds = %8, %7
  ret void
}

; Function Attrs: mustprogress uwtable
define linkonce_odr void @_ZN3glw6detail19ObjectSharedPointerINS_10SafeObjectENS0_14DefaultDeleterIS2_EENS0_6NoTypeEE7setNullEv(ptr noundef nonnull align 8 dereferenceable(8) %0) #5 comdat align 2 {
  %2 = alloca ptr, align 8
  store ptr %0, ptr %2, align 8
  %3 = load ptr, ptr %2, align 8
  call void @_ZN3glw6detail19ObjectSharedPointerINS_10SafeObjectENS0_14DefaultDeleterIS2_EENS0_6NoTypeEE6detachEv(ptr noundef nonnull align 8 dereferenceable(8) %3)
  ret void
}

; Function Attrs: mustprogress uwtable
define void @_ZN24DecorateRasterProjPlugin11endDecorateEPK7QActionR12MeshDocumentPK17RichParameterListP6GLArea(ptr noundef nonnull align 8 dereferenceable(440) %0, ptr noundef %1, ptr noundef nonnull align 8 dereferenceable(192) %2, ptr noundef %3, ptr noundef %4) unnamed_addr #5 align 2 {
  %6 = alloca ptr, align 8
  %7 = alloca ptr, align 8
  %8 = alloca ptr, align 8
  %9 = alloca ptr, align 8
  %10 = alloca ptr, align 8
  store ptr %0, ptr %6, align 8
  store ptr %1, ptr %7, align 8
  store ptr %2, ptr %8, align 8
  store ptr %3, ptr %9, align 8
  store ptr %4, ptr %10, align 8
  %11 = load ptr, ptr %6, align 8
  %12 = getelementptr inbounds i8, ptr %11, i64 16
  %13 = load ptr, ptr %7, align 8
  %14 = load ptr, ptr %12, align 8
  %15 = getelementptr inbounds ptr, ptr %14, i64 18
  %16 = load ptr, ptr %15, align 8
  %17 = call noundef i32 %16(ptr noundef nonnull align 8 dereferenceable(32) %12, ptr noundef %13)
  switch i32 %17, label %25 [
    i32 0, label %18
  ]

18:                                               ; preds = %5
  call void @glPushAttrib(i32 noundef 1048575)
  %19 = getelementptr inbounds %class.DecorateRasterProjPlugin, ptr %11, i32 0, i32 5
  call void @_ZN4QMapIiN24DecorateRasterProjPlugin10MeshDrawerEE5clearEv(ptr noundef nonnull align 8 dereferenceable(8) %19)
  %20 = getelementptr inbounds %class.DecorateRasterProjPlugin, ptr %11, i32 0, i32 6
  store ptr null, ptr %20, align 8
  %21 = getelementptr inbounds %class.DecorateRasterProjPlugin, ptr %11, i32 0, i32 7
  store ptr null, ptr %21, align 8
  %22 = getelementptr inbounds %class.DecorateRasterProjPlugin, ptr %11, i32 0, i32 13
  call void @_ZN3glw6detail19ObjectSharedPointerINS_10SafeObjectENS0_14DefaultDeleterIS2_EENS0_6NoTypeEE7setNullEv(ptr noundef nonnull align 8 dereferenceable(8) %22)
  %23 = getelementptr inbounds %class.DecorateRasterProjPlugin, ptr %11, i32 0, i32 11
  call void @_ZN3glw6detail19ObjectSharedPointerINS_10SafeObjectENS0_14DefaultDeleterIS2_EENS0_6NoTypeEE7setNullEv(ptr noundef nonnull align 8 dereferenceable(8) %23)
  %24 = getelementptr inbounds %class.DecorateRasterProjPlugin, ptr %11, i32 0, i32 12
  call void @_ZN3glw6detail19ObjectSharedPointerINS_10SafeObjectENS0_14DefaultDeleterIS2_EENS0_6NoTypeEE7setNullEv(ptr noundef nonnull align 8 dereferenceable(8) %24)
  call void @glPopAttrib()
  br label %26

25:                                               ; preds = %5
  br label %26

26:                                               ; preds = %25, %18
  ret void
}