; Function Attrs: mustprogress uwtable
define void @_ZN24DecorateRasterProjPlugin11endDecorateEPK7QActionR12MeshDocumentPK17RichParameterListP6GLArea(ptr noundef nonnull align 8 dereferenceable(440) %0, ptr noundef %1, ptr nocapture nonnull readnone align 8 %2, ptr nocapture readnone %3, ptr nocapture readnone %4) unnamed_addr #9 align 2 personality ptr @__gxx_personality_v0 {
  %6 = getelementptr inbounds i8, ptr %0, i64 16
  %7 = load ptr, ptr %6, align 8
  %8 = getelementptr inbounds i8, ptr %7, i64 144
  %9 = load ptr, ptr %8, align 8
  %10 = tail call noundef i32 %9(ptr noundef nonnull align 8 dereferenceable(32) %6, ptr noundef %1)
  %cond = icmp eq i32 %10, 0
  br i1 %cond, label %11, label %53

11:                                               ; preds = %5
  tail call void @glPushAttrib(i32 noundef 1048575)
  %12 = getelementptr inbounds i8, ptr %0, i64 200
  tail call void @_ZN4QMapIiN24DecorateRasterProjPlugin10MeshDrawerEE5clearEv(ptr noundef nonnull align 8 dereferenceable(8) %12)
  %13 = getelementptr inbounds i8, ptr %0, i64 208
  %14 = getelementptr inbounds i8, ptr %0, i64 432
  tail call void @llvm.memset.p0.i64(ptr noundef nonnull align 8 dereferenceable(16) %13, i8 0, i64 16, i1 false)
  %15 = load ptr, ptr %14, align 8
  %16 = icmp eq ptr %15, null
  br i1 %16, label %_ZN3glw6detail19ObjectSharedPointerINS_10SafeObjectENS0_14DefaultDeleterIS2_EENS0_6NoTypeEE7setNullEv.exit, label %17

17:                                               ; preds = %11
  %18 = getelementptr inbounds i8, ptr %15, i64 8
  %19 = load i32, ptr %18, align 8
  %20 = add nsw i32 %19, -1
  store i32 %20, ptr %18, align 8
  %.not.i.i.i = icmp eq i32 %20, 0
  br i1 %.not.i.i.i, label %21, label %_ZN3glw6detail16RefCountedObjectINS_10SafeObjectENS0_14DefaultDeleterIS2_EENS0_6NoTypeEE5unrefEv.exit.i.i

21:                                               ; preds = %17
  %22 = load ptr, ptr %15, align 8
  %23 = icmp eq ptr %22, null
  br i1 %23, label %_ZN3glw6detail16RefCountedObjectINS_10SafeObjectENS0_14DefaultDeleterIS2_EENS0_6NoTypeEED2Ev.exit.i.i.i, label %_ZN3glw6detail14DefaultDeleterINS_10SafeObjectEEclEPS2_.exit.i.i.i.i.i

_ZN3glw6detail14DefaultDeleterINS_10SafeObjectEEclEPS2_.exit.i.i.i.i.i: ; preds = %21
  %24 = load ptr, ptr %22, align 8
  %25 = getelementptr inbounds i8, ptr %24, i64 8
  %26 = load ptr, ptr %25, align 8
  tail call void %26(ptr noundef nonnull align 8 dereferenceable(16) %22) #23
  br label %_ZN3glw6detail16RefCountedObjectINS_10SafeObjectENS0_14DefaultDeleterIS2_EENS0_6NoTypeEED2Ev.exit.i.i.i

_ZN3glw6detail16RefCountedObjectINS_10SafeObjectENS0_14DefaultDeleterIS2_EENS0_6NoTypeEED2Ev.exit.i.i.i: ; preds = %_ZN3glw6detail14DefaultDeleterINS_10SafeObjectEEclEPS2_.exit.i.i.i.i.i, %21
  tail call void @_ZdlPv(ptr noundef nonnull %15) #22
  br label %_ZN3glw6detail16RefCountedObjectINS_10SafeObjectENS0_14DefaultDeleterIS2_EENS0_6NoTypeEE5unrefEv.exit.i.i

_ZN3glw6detail16RefCountedObjectINS_10SafeObjectENS0_14DefaultDeleterIS2_EENS0_6NoTypeEE5unrefEv.exit.i.i: ; preds = %_ZN3glw6detail16RefCountedObjectINS_10SafeObjectENS0_14DefaultDeleterIS2_EENS0_6NoTypeEED2Ev.exit.i.i.i, %17
  store ptr null, ptr %14, align 8
  br label %_ZN3glw6detail19ObjectSharedPointerINS_10SafeObjectENS0_14DefaultDeleterIS2_EENS0_6NoTypeEE7setNullEv.exit

_ZN3glw6detail19ObjectSharedPointerINS_10SafeObjectENS0_14DefaultDeleterIS2_EENS0_6NoTypeEE7setNullEv.exit: ; preds = %11, %_ZN3glw6detail16RefCountedObjectINS_10SafeObjectENS0_14DefaultDeleterIS2_EENS0_6NoTypeEE5unrefEv.exit.i.i
  %27 = getelementptr inbounds i8, ptr %0, i64 416
  %28 = load ptr, ptr %27, align 8
  %29 = icmp eq ptr %28, null
  br i1 %29, label %_ZN3glw6detail19ObjectSharedPointerINS_10SafeObjectENS0_14DefaultDeleterIS2_EENS0_6NoTypeEE7setNullEv.exit6, label %30

30:                                               ; preds = %_ZN3glw6detail19ObjectSharedPointerINS_10SafeObjectENS0_14DefaultDeleterIS2_EENS0_6NoTypeEE7setNullEv.exit
  %31 = getelementptr inbounds i8, ptr %28, i64 8
  %32 = load i32, ptr %31, align 8
  %33 = add nsw i32 %32, -1
  store i32 %33, ptr %31, align 8
  %.not.i.i.i2 = icmp eq i32 %33, 0
  br i1 %.not.i.i.i2, label %34, label %_ZN3glw6detail16RefCountedObjectINS_10SafeObjectENS0_14DefaultDeleterIS2_EENS0_6NoTypeEE5unrefEv.exit.i.i3

34:                                               ; preds = %30
  %35 = load ptr, ptr %28, align 8
  %36 = icmp eq ptr %35, null
  br i1 %36, label %_ZN3glw6detail16RefCountedObjectINS_10SafeObjectENS0_14DefaultDeleterIS2_EENS0_6NoTypeEED2Ev.exit.i.i.i5, label %_ZN3glw6detail14DefaultDeleterINS_10SafeObjectEEclEPS2_.exit.i.i.i.i.i4

_ZN3glw6detail14DefaultDeleterINS_10SafeObjectEEclEPS2_.exit.i.i.i.i.i4: ; preds = %34
  %37 = load ptr, ptr %35, align 8
  %38 = getelementptr inbounds i8, ptr %37, i64 8
  %39 = load ptr, ptr %38, align 8
  tail call void %39(ptr noundef nonnull align 8 dereferenceable(16) %35) #23
  br label %_ZN3glw6detail16RefCountedObjectINS_10SafeObjectENS0_14DefaultDeleterIS2_EENS0_6NoTypeEED2Ev.exit.i.i.i5

_ZN3glw6detail16RefCountedObjectINS_10SafeObjectENS0_14DefaultDeleterIS2_EENS0_6NoTypeEED2Ev.exit.i.i.i5: ; preds = %_ZN3glw6detail14DefaultDeleterINS_10SafeObjectEEclEPS2_.exit.i.i.i.i.i4, %34
  tail call void @_ZdlPv(ptr noundef nonnull %28) #22
  br label %_ZN3glw6detail16RefCountedObjectINS_10SafeObjectENS0_14DefaultDeleterIS2_EENS0_6NoTypeEE5unrefEv.exit.i.i3

_ZN3glw6detail16RefCountedObjectINS_10SafeObjectENS0_14DefaultDeleterIS2_EENS0_6NoTypeEE5unrefEv.exit.i.i3: ; preds = %_ZN3glw6detail16RefCountedObjectINS_10SafeObjectENS0_14DefaultDeleterIS2_EENS0_6NoTypeEED2Ev.exit.i.i.i5, %30
  store ptr null, ptr %27, align 8
  br label %_ZN3glw6detail19ObjectSharedPointerINS_10SafeObjectENS0_14DefaultDeleterIS2_EENS0_6NoTypeEE7setNullEv.exit6

_ZN3glw6detail19ObjectSharedPointerINS_10SafeObjectENS0_14DefaultDeleterIS2_EENS0_6NoTypeEE7setNullEv.exit6: ; preds = %_ZN3glw6detail19ObjectSharedPointerINS_10SafeObjectENS0_14DefaultDeleterIS2_EENS0_6NoTypeEE7setNullEv.exit, %_ZN3glw6detail16RefCountedObjectINS_10SafeObjectENS0_14DefaultDeleterIS2_EENS0_6NoTypeEE5unrefEv.exit.i.i3
  %40 = getelementptr inbounds i8, ptr %0, i64 424
  %41 = load ptr, ptr %40, align 8
  %42 = icmp eq ptr %41, null
  br i1 %42, label %_ZN3glw6detail19ObjectSharedPointerINS_10SafeObjectENS0_14DefaultDeleterIS2_EENS0_6NoTypeEE7setNullEv.exit11, label %43

43:                                               ; preds = %_ZN3glw6detail19ObjectSharedPointerINS_10SafeObjectENS0_14DefaultDeleterIS2_EENS0_6NoTypeEE7setNullEv.exit6
  %44 = getelementptr inbounds i8, ptr %41, i64 8
  %45 = load i32, ptr %44, align 8
  %46 = add nsw i32 %45, -1
  store i32 %46, ptr %44, align 8
  %.not.i.i.i7 = icmp eq i32 %46, 0
  br i1 %.not.i.i.i7, label %47, label %_ZN3glw6detail16RefCountedObjectINS_10SafeObjectENS0_14DefaultDeleterIS2_EENS0_6NoTypeEE5unrefEv.exit.i.i8

47:                                               ; preds = %43
  %48 = load ptr, ptr %41, align 8
  %49 = icmp eq ptr %48, null
  br i1 %49, label %_ZN3glw6detail16RefCountedObjectINS_10SafeObjectENS0_14DefaultDeleterIS2_EENS0_6NoTypeEED2Ev.exit.i.i.i10, label %_ZN3glw6detail14DefaultDeleterINS_10SafeObjectEEclEPS2_.exit.i.i.i.i.i9

_ZN3glw6detail14DefaultDeleterINS_10SafeObjectEEclEPS2_.exit.i.i.i.i.i9: ; preds = %47
  %50 = load ptr, ptr %48, align 8
  %51 = getelementptr inbounds i8, ptr %50, i64 8
  %52 = load ptr, ptr %51, align 8
  tail call void %52(ptr noundef nonnull align 8 dereferenceable(16) %48) #23
  br label %_ZN3glw6detail16RefCountedObjectINS_10SafeObjectENS0_14DefaultDeleterIS2_EENS0_6NoTypeEED2Ev.exit.i.i.i10

_ZN3glw6detail16RefCountedObjectINS_10SafeObjectENS0_14DefaultDeleterIS2_EENS0_6NoTypeEED2Ev.exit.i.i.i10: ; preds = %_ZN3glw6detail14DefaultDeleterINS_10SafeObjectEEclEPS2_.exit.i.i.i.i.i9, %47
  tail call void @_ZdlPv(ptr noundef nonnull %41) #22
  br label %_ZN3glw6detail16RefCountedObjectINS_10SafeObjectENS0_14DefaultDeleterIS2_EENS0_6NoTypeEE5unrefEv.exit.i.i8

_ZN3glw6detail16RefCountedObjectINS_10SafeObjectENS0_14DefaultDeleterIS2_EENS0_6NoTypeEE5unrefEv.exit.i.i8: ; preds = %_ZN3glw6detail16RefCountedObjectINS_10SafeObjectENS0_14DefaultDeleterIS2_EENS0_6NoTypeEED2Ev.exit.i.i.i10, %43
  store ptr null, ptr %40, align 8
  br label %_ZN3glw6detail19ObjectSharedPointerINS_10SafeObjectENS0_14DefaultDeleterIS2_EENS0_6NoTypeEE7setNullEv.exit11

_ZN3glw6detail19ObjectSharedPointerINS_10SafeObjectENS0_14DefaultDeleterIS2_EENS0_6NoTypeEE7setNullEv.exit11: ; preds = %_ZN3glw6detail19ObjectSharedPointerINS_10SafeObjectENS0_14DefaultDeleterIS2_EENS0_6NoTypeEE7setNullEv.exit6, %_ZN3glw6detail16RefCountedObjectINS_10SafeObjectENS0_14DefaultDeleterIS2_EENS0_6NoTypeEE5unrefEv.exit.i.i8
  tail call void @glPopAttrib()
  br label %53

53:                                               ; preds = %5, %_ZN3glw6detail19ObjectSharedPointerINS_10SafeObjectENS0_14DefaultDeleterIS2_EENS0_6NoTypeEE7setNullEv.exit11
  ret void
}